(lp0
S'RUNNING'
p1
aS'TRAINING'
p2
aS'TENNIS'
p3
aS'FOOTBALL GENERIC'
p4
aS'OUTDOOR'
p5
aS'INDOOR'
p6
aS'STELLA'
p7
aS'FOOTBALL LICENSED'
p8
aS'SWIM'
p9
aS'GOLF'
p10
aS'ACTION SPORTS'
p11
aS'RELAX CASUAL'
p12
aS'CLASSICS'
p13
aS'DRESS CASUAL'
p14
aS'ORIGINALS'
p15
aS'PORSCHE'
p16
aS'BASKETBALL GENERIC'
p17
aS'SLVR'
p18
aS'ACTIVE CASUAL'
p19
aS'OLYMPICS'
p20
aS'NEO'
p21
a.